SF:/Users/davefol/src/babushka/src/bounding_box.rs
FN:14,_RNvMNtCsja659UKyDHk_8babushka12bounding_boxINtB2_11BoundingBoxpE6heightB4_
FN:10,_RNvMNtCsja659UKyDHk_8babushka12bounding_boxINtB2_11BoundingBoxpE5widthB4_
FN:1,_RNvXININtCsja659UKyDHk_8babushka12bounding_boxs_0pEINtB5_11BoundingBoxpENtNtCs25QQnN8LMgH_4core3fmt5Debug3fmtB7_
FNDA:0,_RNvMNtCsja659UKyDHk_8babushka12bounding_boxINtB2_11BoundingBoxpE6heightB4_
FNDA:0,_RNvMNtCsja659UKyDHk_8babushka12bounding_boxINtB2_11BoundingBoxpE5widthB4_
FNDA:0,_RNvXININtCsja659UKyDHk_8babushka12bounding_boxs_0pEINtB5_11BoundingBoxpENtNtCs25QQnN8LMgH_4core3fmt5Debug3fmtB7_
FNF:3
FNH:0
DA:1,0
DA:10,0
DA:11,0
DA:12,0
DA:14,0
DA:15,0
DA:16,0
BRF:0
BRH:0
LF:7
LH:0
end_of_record
SF:/Users/davefol/src/babushka/src/kernelf64/point2d.rs
FN:30,_RNvXNtNtCsja659UKyDHk_8babushka9kernelf647point2dNtB2_7Point2DNtNtB6_5point7Point2D5set_y
FN:14,_RNvXNtNtCsja659UKyDHk_8babushka9kernelf647point2dNtB2_7Point2DNtNtB6_5point7Point2D1x
FN:36,_RNvXs_NtNtCsja659UKyDHk_8babushka9kernelf647point2dNtB4_7Point2DINtNtCs25QQnN8LMgH_4core7convert4FromTddEE4from
FN:56,_RNvXs1_NtNtCsja659UKyDHk_8babushka9kernelf647point2dNtB5_7Point2DNtNtNtCs25QQnN8LMgH_4core3ops5arith3Sub3sub
FN:79,_RNvXs3_NtNtCsja659UKyDHk_8babushka9kernelf647point2dNtB5_7Point2DNtNtCsfERywlk3p84_10num_traits10identities4Zero7is_zero
FN:22,_RNvXNtNtCsja659UKyDHk_8babushka9kernelf647point2dNtB2_7Point2DNtNtB6_5point7Point2D7from_xy
FN:90,_RNvXs4_NtNtCsja659UKyDHk_8babushka9kernelf647point2dNtB5_7Point2DNtNtCs1YXaJs4kMWT_6approx11abs_diff_eq9AbsDiffEq15default_epsilon
FN:5,_RNvXs7_NtNtCsja659UKyDHk_8babushka9kernelf647point2dNtB5_7Point2DNtNtCs25QQnN8LMgH_4core3fmt5Debug3fmtB9_
FN:46,_RNvXs0_NtNtCsja659UKyDHk_8babushka9kernelf647point2dNtB5_7Point2DNtNtNtCs25QQnN8LMgH_4core3ops5arith3Add3add
FN:66,_RNvXs2_NtNtCsja659UKyDHk_8babushka9kernelf647point2dNtB5_7Point2DNtNtNtCs25QQnN8LMgH_4core3ops5arith3Neg3neg
FN:86,_RNvXs4_NtNtCsja659UKyDHk_8babushka9kernelf647point2dNtB5_7Point2DNtNtCs1YXaJs4kMWT_6approx11abs_diff_eq9AbsDiffEq11abs_diff_eq
FN:75,_RNvXs3_NtNtCsja659UKyDHk_8babushka9kernelf647point2dNtB5_7Point2DNtNtCsfERywlk3p84_10num_traits10identities4Zero4zero
FN:18,_RNvXNtNtCsja659UKyDHk_8babushka9kernelf647point2dNtB2_7Point2DNtNtB6_5point7Point2D1y
FN:5,_RNvXs9_NtNtCsja659UKyDHk_8babushka9kernelf647point2dNtB5_7Point2DNtNtCs25QQnN8LMgH_4core3cmp9PartialEq2eqB9_
FN:26,_RNvXNtNtCsja659UKyDHk_8babushka9kernelf647point2dNtB2_7Point2DNtNtB6_5point7Point2D5set_x
FN:5,_RNvXs5_NtNtCsja659UKyDHk_8babushka9kernelf647point2dNtB5_7Point2DNtNtCs25QQnN8LMgH_4core5clone5Clone5cloneB9_
FNDA:124,_RNvXNtNtCsja659UKyDHk_8babushka9kernelf647point2dNtB2_7Point2DNtNtB6_5point7Point2D5set_y
FNDA:32735,_RNvXNtNtCsja659UKyDHk_8babushka9kernelf647point2dNtB2_7Point2DNtNtB6_5point7Point2D1x
FNDA:74,_RNvXs_NtNtCsja659UKyDHk_8babushka9kernelf647point2dNtB4_7Point2DINtNtCs25QQnN8LMgH_4core7convert4FromTddEE4from
FNDA:59,_RNvXs1_NtNtCsja659UKyDHk_8babushka9kernelf647point2dNtB5_7Point2DNtNtNtCs25QQnN8LMgH_4core3ops5arith3Sub3sub
FNDA:54,_RNvXs3_NtNtCsja659UKyDHk_8babushka9kernelf647point2dNtB5_7Point2DNtNtCsfERywlk3p84_10num_traits10identities4Zero7is_zero
FNDA:1254,_RNvXNtNtCsja659UKyDHk_8babushka9kernelf647point2dNtB2_7Point2DNtNtB6_5point7Point2D7from_xy
FNDA:2002,_RNvXs4_NtNtCsja659UKyDHk_8babushka9kernelf647point2dNtB5_7Point2DNtNtCs1YXaJs4kMWT_6approx11abs_diff_eq9AbsDiffEq15default_epsilon
FNDA:0,_RNvXs7_NtNtCsja659UKyDHk_8babushka9kernelf647point2dNtB5_7Point2DNtNtCs25QQnN8LMgH_4core3fmt5Debug3fmtB9_
FNDA:4209,_RNvXs0_NtNtCsja659UKyDHk_8babushka9kernelf647point2dNtB5_7Point2DNtNtNtCs25QQnN8LMgH_4core3ops5arith3Add3add
FNDA:858,_RNvXs2_NtNtCsja659UKyDHk_8babushka9kernelf647point2dNtB5_7Point2DNtNtNtCs25QQnN8LMgH_4core3ops5arith3Neg3neg
FNDA:2002,_RNvXs4_NtNtCsja659UKyDHk_8babushka9kernelf647point2dNtB5_7Point2DNtNtCs1YXaJs4kMWT_6approx11abs_diff_eq9AbsDiffEq11abs_diff_eq
FNDA:2,_RNvXs3_NtNtCsja659UKyDHk_8babushka9kernelf647point2dNtB5_7Point2DNtNtCsfERywlk3p84_10num_traits10identities4Zero4zero
FNDA:29131,_RNvXNtNtCsja659UKyDHk_8babushka9kernelf647point2dNtB2_7Point2DNtNtB6_5point7Point2D1y
FNDA:39,_RNvXs9_NtNtCsja659UKyDHk_8babushka9kernelf647point2dNtB5_7Point2DNtNtCs25QQnN8LMgH_4core3cmp9PartialEq2eqB9_
FNDA:124,_RNvXNtNtCsja659UKyDHk_8babushka9kernelf647point2dNtB2_7Point2DNtNtB6_5point7Point2D5set_x
FNDA:2219,_RNvXs5_NtNtCsja659UKyDHk_8babushka9kernelf647point2dNtB5_7Point2DNtNtCs25QQnN8LMgH_4core5clone5Clone5cloneB9_
FNF:16
FNH:15
DA:5,2219
DA:14,32735
DA:15,32735
DA:16,32735
DA:18,29131
DA:19,29131
DA:20,29131
DA:22,1254
DA:23,1254
DA:24,1254
DA:26,124
DA:27,124
DA:28,124
DA:30,124
DA:31,124
DA:32,124
DA:36,74
DA:37,74
DA:38,74
DA:39,74
DA:40,74
DA:41,74
DA:46,4209
DA:47,4209
DA:48,4209
DA:49,4209
DA:50,4209
DA:51,4209
DA:56,59
DA:57,59
DA:58,59
DA:59,59
DA:60,59
DA:61,59
DA:66,858
DA:67,858
DA:68,858
DA:69,858
DA:70,858
DA:71,858
DA:75,2
DA:76,2
DA:77,2
DA:79,54
DA:80,54
DA:81,54
DA:86,2002
DA:87,2002
DA:88,2002
DA:90,2002
DA:91,2002
DA:92,2002
BRF:0
BRH:0
LF:54
LH:53
end_of_record
SF:/Users/davefol/src/babushka/src/kernelf64/polygon.rs
FN:3,_RNvXs3_NtNtCsja659UKyDHk_8babushka9kernelf647polygonNtB5_7PolygonNtNtCs25QQnN8LMgH_4core3fmt5Debug3fmtB9_
FN:10,_RNvMNtNtCsja659UKyDHk_8babushka9kernelf647polygonNtB2_7Polygon23iter_mut_vertices_local
FN:44,_RNvXs0_NtNtCsja659UKyDHk_8babushka9kernelf647polygonNtB5_7PolygonNtNtB9_7polygon7Polygon19iter_segments_local
FN:63,_RNvXs0_NtNtCsja659UKyDHk_8babushka9kernelf647polygonNtB5_7PolygonNtNtB9_7polygon7Polygon6length
FN:69,_RNvXs1_NtNtCsja659UKyDHk_8babushka9kernelf647polygonNtB5_7PolygonNtNtB9_14no_fit_polygon19ComputeNoFitPolygon10get_vertex
FN:3,_RNvXs2_NtNtCsja659UKyDHk_8babushka9kernelf647polygonNtB5_7PolygonNtNtCs25QQnN8LMgH_4core5clone5Clone5cloneB9_
FN:55,_RNvXs0_NtNtCsja659UKyDHk_8babushka9kernelf647polygonNtB5_7PolygonNtNtB9_7polygon7Polygon6offset
FN:38,_RNvXs0_NtNtCsja659UKyDHk_8babushka9kernelf647polygonNtB5_7PolygonNtNtB9_7polygon7Polygon19iter_vertices_local
FN:59,_RNvXs0_NtNtCsja659UKyDHk_8babushka9kernelf647polygonNtB5_7PolygonNtNtB9_7polygon7Polygon10set_offset
FN:26,_RNvXs_NtNtCsja659UKyDHk_8babushka9kernelf647polygonNtB4_7PolygonINtNtCs25QQnN8LMgH_4core7convert4FromINtNtCs4NnepYwyJgR_5alloc3vec3VecNtNtB6_7point2d7Point2DEE4fromB8_
FN:49,_RNCNvXs0_NtNtCsja659UKyDHk_8babushka9kernelf647polygonNtB7_7PolygonNtNtBb_7polygon7Polygon19iter_segments_local0Bb_
FNDA:0,_RNvXs3_NtNtCsja659UKyDHk_8babushka9kernelf647polygonNtB5_7PolygonNtNtCs25QQnN8LMgH_4core3fmt5Debug3fmtB9_
FNDA:0,_RNvMNtNtCsja659UKyDHk_8babushka9kernelf647polygonNtB2_7Polygon23iter_mut_vertices_local
FNDA:203,_RNvXs0_NtNtCsja659UKyDHk_8babushka9kernelf647polygonNtB5_7PolygonNtNtB9_7polygon7Polygon19iter_segments_local
FNDA:548,_RNvXs0_NtNtCsja659UKyDHk_8babushka9kernelf647polygonNtB5_7PolygonNtNtB9_7polygon7Polygon6length
FNDA:109,_RNvXs1_NtNtCsja659UKyDHk_8babushka9kernelf647polygonNtB5_7PolygonNtNtB9_14no_fit_polygon19ComputeNoFitPolygon10get_vertex
FNDA:5,_RNvXs2_NtNtCsja659UKyDHk_8babushka9kernelf647polygonNtB5_7PolygonNtNtCs25QQnN8LMgH_4core5clone5Clone5cloneB9_
FNDA:2091,_RNvXs0_NtNtCsja659UKyDHk_8babushka9kernelf647polygonNtB5_7PolygonNtNtB9_7polygon7Polygon6offset
FNDA:21,_RNvXs0_NtNtCsja659UKyDHk_8babushka9kernelf647polygonNtB5_7PolygonNtNtB9_7polygon7Polygon19iter_vertices_local
FNDA:22,_RNvXs0_NtNtCsja659UKyDHk_8babushka9kernelf647polygonNtB5_7PolygonNtNtB9_7polygon7Polygon10set_offset
FNDA:23,_RNvXs_NtNtCsja659UKyDHk_8babushka9kernelf647polygonNtB4_7PolygonINtNtCs25QQnN8LMgH_4core7convert4FromINtNtCs4NnepYwyJgR_5alloc3vec3VecNtNtB6_7point2d7Point2DEE4fromB8_
FNDA:2036,_RNCNvXs0_NtNtCsja659UKyDHk_8babushka9kernelf647polygonNtB7_7PolygonNtNtBb_7polygon7Polygon19iter_segments_local0Bb_
FNF:11
FNH:9
DA:3,5
DA:10,0
DA:11,0
DA:12,0
DA:13,0
DA:14,0
DA:26,23
DA:27,23
DA:28,23
DA:29,23
DA:30,23
DA:31,23
DA:38,21
DA:39,21
DA:40,21
DA:41,21
DA:42,21
DA:44,203
DA:45,203
DA:46,203
DA:47,203
DA:48,203
DA:49,2036
DA:50,2036
DA:51,2036
DA:52,2036
DA:53,203
DA:55,2091
DA:56,2091
DA:57,2091
DA:59,22
DA:60,22
DA:61,22
DA:63,548
DA:64,548
DA:65,548
DA:69,109
DA:70,109
DA:71,109
BRF:0
BRH:0
LF:42
LH:36
end_of_record
SF:/Users/davefol/src/babushka/src/kernelf64/segment.rs
FN:20,_RNvXs_NtNtCsja659UKyDHk_8babushka9kernelf647segmentNtB4_7SegmentINtNtCs25QQnN8LMgH_4core7convert4FromTNtNtB6_7point2d7Point2DB1C_EE4from
FN:11,_RNvXNtNtCsja659UKyDHk_8babushka9kernelf647segmentNtB2_7SegmentNtNtB6_7segment7Segment5start
FN:27,_RNvXs0_NtNtCsja659UKyDHk_8babushka9kernelf647segmentNtB5_7SegmentINtNtNtCs25QQnN8LMgH_4core3ops5arith3AddNtNtB7_7point2d7Point2DE3add
FN:14,_RNvXNtNtCsja659UKyDHk_8babushka9kernelf647segmentNtB2_7SegmentNtNtB6_7segment7Segment3end
FN:4,_RNvXs1_NtNtCsja659UKyDHk_8babushka9kernelf647segmentNtB5_7SegmentNtNtCs25QQnN8LMgH_4core5clone5Clone5cloneB9_
FNDA:0,_RNvXs_NtNtCsja659UKyDHk_8babushka9kernelf647segmentNtB4_7SegmentINtNtCs25QQnN8LMgH_4core7convert4FromTNtNtB6_7point2d7Point2DB1C_EE4from
FNDA:6581,_RNvXNtNtCsja659UKyDHk_8babushka9kernelf647segmentNtB2_7SegmentNtNtB6_7segment7Segment5start
FNDA:2025,_RNvXs0_NtNtCsja659UKyDHk_8babushka9kernelf647segmentNtB5_7SegmentINtNtNtCs25QQnN8LMgH_4core3ops5arith3AddNtNtB7_7point2d7Point2DE3add
FNDA:5738,_RNvXNtNtCsja659UKyDHk_8babushka9kernelf647segmentNtB2_7SegmentNtNtB6_7segment7Segment3end
FNDA:854,_RNvXs1_NtNtCsja659UKyDHk_8babushka9kernelf647segmentNtB5_7SegmentNtNtCs25QQnN8LMgH_4core5clone5Clone5cloneB9_
FNF:5
FNH:4
DA:4,854
DA:11,6581
DA:12,6581
DA:13,6581
DA:14,5738
DA:15,5738
DA:16,5738
DA:20,0
DA:21,0
DA:22,0
DA:27,2025
DA:28,2025
DA:29,2025
DA:30,2025
DA:31,2025
DA:32,2025
BRF:0
BRH:0
LF:16
LH:13
end_of_record
SF:/Users/davefol/src/babushka/src/no_fit_polygon.rs
FN:507,_RNvNtNtCsja659UKyDHk_8babushka14no_fit_polygon5testss_46test_no_fit_polygon_one_convex_no_holes_inside
FN:470,_RNvNtNtCsja659UKyDHk_8babushka14no_fit_polygon5testss_47test_no_fit_polygon_one_convex_no_holes_outside
FN:22,_RNvXs0_NtCsja659UKyDHk_8babushka14no_fit_polygonNtB5_13PolygonSourceNtNtCs25QQnN8LMgH_4core5clone5Clone5cloneB7_
FN:28,_RNvXININtCsja659UKyDHk_8babushka14no_fit_polygons5_0pEINtB5_6VectorpENtNtCs25QQnN8LMgH_4core3fmt5Debug3fmtB7_
FN:22,_RNvXs2_NtCsja659UKyDHk_8babushka14no_fit_polygonNtB5_13PolygonSourceNtNtCs25QQnN8LMgH_4core3fmt5Debug3fmtB7_
FN:8,_RNvXNtCsja659UKyDHk_8babushka14no_fit_polygonNtB2_12TouchingTypeNtNtCs25QQnN8LMgH_4core3fmt5Debug3fmtB4_
FN:15,_RNvXs_NtCsja659UKyDHk_8babushka14no_fit_polygonNtB4_8TouchingNtNtCs25QQnN8LMgH_4core3fmt5Debug3fmtB6_
FN:28,_RNvXININtCsja659UKyDHk_8babushka14no_fit_polygons3_0pEINtB5_6VectorpENtNtCs25QQnN8LMgH_4core5clone5Clone5cloneB7_
FN:349,_RNvYNtNtNtCsja659UKyDHk_8babushka9kernelf647polygon7PolygonNtNtB8_14no_fit_polygon19ComputeNoFitPolygon18search_start_pointB8_
FN:39,_RNvYNtNtNtCsja659UKyDHk_8babushka9kernelf647polygon7PolygonNtNtB8_14no_fit_polygon19ComputeNoFitPolygon14no_fit_polygonB8_
FN:444,_RNvYNtNtNtCsja659UKyDHk_8babushka9kernelf647polygon7PolygonNtNtB8_14no_fit_polygon19ComputeNoFitPolygon6in_nfpB8_
FN:61,_RNCNvYNtNtNtCsja659UKyDHk_8babushka9kernelf647polygon7PolygonNtNtBa_14no_fit_polygon19ComputeNoFitPolygon14no_fit_polygons_0Ba_
FN:55,_RNCNvYNtNtNtCsja659UKyDHk_8babushka9kernelf647polygon7PolygonNtNtBa_14no_fit_polygon19ComputeNoFitPolygon14no_fit_polygon0Ba_
FN:290,_RNCNvYNtNtNtCsja659UKyDHk_8babushka9kernelf647polygon7PolygonNtNtBa_14no_fit_polygon19ComputeNoFitPolygon14no_fit_polygons0_0Ba_
FN:469,_RNCNvNtNtCsja659UKyDHk_8babushka14no_fit_polygon5tests47test_no_fit_polygon_one_convex_no_holes_outside0B7_
FN:506,_RNCNvNtNtCsja659UKyDHk_8babushka14no_fit_polygon5tests46test_no_fit_polygon_one_convex_no_holes_inside0B7_
FNDA:1,_RNvNtNtCsja659UKyDHk_8babushka14no_fit_polygon5testss_46test_no_fit_polygon_one_convex_no_holes_inside
FNDA:1,_RNvNtNtCsja659UKyDHk_8babushka14no_fit_polygon5testss_47test_no_fit_polygon_one_convex_no_holes_outside
FNDA:0,_RNvXs0_NtCsja659UKyDHk_8babushka14no_fit_polygonNtB5_13PolygonSourceNtNtCs25QQnN8LMgH_4core5clone5Clone5cloneB7_
FNDA:0,_RNvXININtCsja659UKyDHk_8babushka14no_fit_polygons5_0pEINtB5_6VectorpENtNtCs25QQnN8LMgH_4core3fmt5Debug3fmtB7_
FNDA:0,_RNvXs2_NtCsja659UKyDHk_8babushka14no_fit_polygonNtB5_13PolygonSourceNtNtCs25QQnN8LMgH_4core3fmt5Debug3fmtB7_
FNDA:0,_RNvXNtCsja659UKyDHk_8babushka14no_fit_polygonNtB2_12TouchingTypeNtNtCs25QQnN8LMgH_4core3fmt5Debug3fmtB4_
FNDA:0,_RNvXs_NtCsja659UKyDHk_8babushka14no_fit_polygonNtB4_8TouchingNtNtCs25QQnN8LMgH_4core3fmt5Debug3fmtB6_
FNDA:0,_RNvXININtCsja659UKyDHk_8babushka14no_fit_polygons3_0pEINtB5_6VectorpENtNtCs25QQnN8LMgH_4core5clone5Clone5cloneB7_
FNDA:1,_RNvYNtNtNtCsja659UKyDHk_8babushka9kernelf647polygon7PolygonNtNtB8_14no_fit_polygon19ComputeNoFitPolygon18search_start_pointB8_
FNDA:2,_RNvYNtNtNtCsja659UKyDHk_8babushka9kernelf647polygon7PolygonNtNtB8_14no_fit_polygon19ComputeNoFitPolygon14no_fit_polygonB8_
FNDA:1,_RNvYNtNtNtCsja659UKyDHk_8babushka9kernelf647polygon7PolygonNtNtB8_14no_fit_polygon19ComputeNoFitPolygon6in_nfpB8_
FNDA:4,_RNCNvYNtNtNtCsja659UKyDHk_8babushka9kernelf647polygon7PolygonNtNtBa_14no_fit_polygon19ComputeNoFitPolygon14no_fit_polygons_0Ba_
FNDA:10,_RNCNvYNtNtNtCsja659UKyDHk_8babushka9kernelf647polygon7PolygonNtNtBa_14no_fit_polygon19ComputeNoFitPolygon14no_fit_polygon0Ba_
FNDA:3,_RNCNvYNtNtNtCsja659UKyDHk_8babushka9kernelf647polygon7PolygonNtNtBa_14no_fit_polygon19ComputeNoFitPolygon14no_fit_polygons0_0Ba_
FNDA:1,_RNCNvNtNtCsja659UKyDHk_8babushka14no_fit_polygon5tests47test_no_fit_polygon_one_convex_no_holes_outside0B7_
FNDA:1,_RNCNvNtNtCsja659UKyDHk_8babushka14no_fit_polygon5tests46test_no_fit_polygon_one_convex_no_holes_inside0B7_
FNF:16
FNH:10
DA:8,0
DA:15,0
DA:22,0
DA:28,0
DA:39,2
DA:40,2
DA:41,2
DA:42,2
DA:43,2
DA:44,2
DA:45,2
DA:46,2
DA:47,2
DA:48,2
DA:49,2
DA:50,2
DA:51,2
DA:52,2
DA:53,2
DA:54,2
DA:55,10
DA:56,2
DA:57,2
DA:58,2
DA:59,2
DA:60,2
DA:61,4
DA:62,2
DA:63,2
DA:65,2
DA:66,1
DA:68,1
DA:71,2
DA:73,2
DA:74,2
DA:75,2
DA:76,2
DA:77,2
DA:78,2
DA:79,2
DA:80,2
DA:81,2
DA:82,2
DA:83,2
DA:86,12
DA:87,12
DA:92,216
DA:93,12
DA:94,12
DA:95,12
DA:97,216
DA:98,36
DA:100,180
DA:102,216
DA:103,72
DA:105,144
DA:108,216
DA:109,10
DA:110,10
DA:111,10
DA:112,10
DA:113,10
DA:114,206
DA:115,6
DA:116,6
DA:117,6
DA:118,6
DA:119,6
DA:120,200
DA:121,1
DA:122,1
DA:123,1
DA:124,1
DA:125,1
DA:126,199
DA:130,12
DA:131,29
DA:132,17
DA:133,17
DA:136,17
DA:137,4
DA:139,13
DA:141,17
DA:142,2
DA:144,15
DA:147,17
DA:148,17
DA:149,17
DA:150,17
DA:151,17
DA:152,17
DA:153,6
DA:155,11
DA:157,17
DA:158,7
DA:160,10
DA:162,17
DA:163,17
DA:164,17
DA:165,17
DA:166,10
DA:167,10
DA:168,10
DA:169,10
DA:170,10
DA:171,10
DA:172,10
DA:173,10
DA:174,10
DA:175,10
DA:176,10
DA:177,10
DA:178,10
DA:179,10
DA:180,10
DA:181,10
DA:182,10
DA:183,10
DA:184,10
DA:185,10
DA:186,10
DA:187,10
DA:188,10
DA:189,10
DA:190,10
DA:191,10
DA:192,10
DA:193,10
DA:194,10
DA:195,6
DA:196,6
DA:197,6
DA:198,6
DA:199,6
DA:200,6
DA:201,6
DA:202,6
DA:203,6
DA:204,6
DA:205,6
DA:206,6
DA:207,6
DA:208,6
DA:209,1
DA:210,1
DA:211,1
DA:212,1
DA:213,1
DA:214,1
DA:215,1
DA:216,1
DA:217,1
DA:218,1
DA:219,1
DA:220,1
DA:221,1
DA:222,1
DA:225,12
DA:226,12
DA:228,66
DA:229,54
DA:230,0
DA:231,54
DA:235,54
DA:236,46
DA:238,25
DA:239,25
DA:240,25
DA:241,25
DA:242,25
DA:243,25
DA:245,11
DA:246,14
DA:247,21
DA:248,8
DA:251,43
DA:252,43
DA:253,43
DA:254,43
DA:255,10
DA:256,33
DA:258,43
DA:259,43
DA:260,12
DA:261,12
DA:262,31
DA:263,0
DA:266,12
DA:268,0
DA:269,0
DA:270,12
DA:271,12
DA:272,12
DA:273,8
DA:274,8
DA:275,8
DA:276,8
DA:277,4
DA:278,4
DA:279,4
DA:280,4
DA:282,0
DA:283,12
DA:284,12
DA:285,12
DA:286,12
DA:287,12
DA:288,3
DA:289,3
DA:290,3
DA:291,3
DA:292,3
DA:293,3
DA:294,3
DA:295,9
DA:297,12
DA:298,12
DA:299,12
DA:300,12
DA:301,12
DA:302,2
DA:303,10
DA:304,10
DA:305,10
DA:306,10
DA:307,10
DA:309,10
DA:310,10
DA:311,29
DA:312,29
DA:313,0
DA:314,29
DA:316,0
DA:317,0
DA:319,10
DA:320,0
DA:321,10
DA:323,10
DA:324,10
DA:325,10
DA:327,10
DA:328,10
DA:329,10
DA:332,2
DA:333,2
DA:334,2
DA:335,2
DA:336,0
DA:338,2
DA:339,2
DA:340,0
DA:341,0
DA:342,0
DA:343,0
DA:346,2
DA:347,2
DA:349,1
DA:350,1
DA:351,1
DA:352,1
DA:353,1
DA:354,1
DA:355,1
DA:356,1
DA:357,1
DA:358,1
DA:362,1
DA:363,1
DA:364,1
DA:366,1
DA:367,1
DA:368,1
DA:369,1
DA:371,2
DA:372,2
DA:373,1
DA:374,1
DA:375,1
DA:379,1
DA:380,0
DA:383,1
DA:384,1
DA:385,1
DA:386,0
DA:388,0
DA:389,1
DA:390,1
DA:391,1
DA:392,1
DA:393,1
DA:394,1
DA:396,1
DA:397,0
DA:398,1
DA:399,0
DA:400,1
DA:401,0
DA:403,1
DA:407,1
DA:408,0
DA:410,1
DA:411,0
DA:412,1
DA:413,1
DA:414,1
DA:415,1
DA:416,1
DA:417,1
DA:418,1
DA:419,1
DA:421,1
DA:424,2
DA:425,2
DA:426,1
DA:427,1
DA:428,1
DA:430,1
DA:431,1
DA:432,1
DA:433,1
DA:435,1
DA:436,0
DA:438,0
DA:441,0
DA:442,1
DA:444,1
DA:445,1
DA:446,1
DA:447,1
DA:448,1
DA:449,1
DA:452,0
DA:453,0
DA:454,0
DA:456,0
DA:457,0
DA:458,0
DA:459,0
DA:460,0
DA:464,0
DA:465,1
DA:469,1
DA:470,1
DA:471,1
DA:472,1
DA:473,1
DA:474,1
DA:475,1
DA:476,1
DA:477,1
DA:478,1
DA:479,1
DA:480,1
DA:481,1
DA:482,1
DA:483,1
DA:484,1
DA:485,1
DA:486,1
DA:487,1
DA:488,1
DA:489,1
DA:490,1
DA:491,1
DA:492,1
DA:493,1
DA:494,1
DA:495,1
DA:496,1
DA:497,1
DA:498,1
DA:499,1
DA:500,1
DA:501,1
DA:502,1
DA:503,1
DA:504,1
DA:506,1
DA:507,1
DA:508,1
DA:509,1
DA:510,1
DA:511,1
DA:512,1
DA:513,1
DA:514,1
DA:515,1
DA:516,1
DA:517,1
DA:518,1
DA:519,1
DA:520,1
DA:521,1
DA:522,1
DA:523,1
DA:524,1
DA:525,1
DA:526,1
DA:527,1
DA:528,1
DA:529,1
DA:530,1
DA:531,1
DA:532,1
DA:533,1
DA:534,1
DA:535,1
DA:536,1
BRF:0
BRH:0
LF:414
LH:374
end_of_record
SF:/Users/davefol/src/babushka/src/parsers/terashima.rs
FN:27,_RNvXININtNtCsja659UKyDHk_8babushka7parsers9terashima0pEINtB5_17TerashimaInstancepENtNtCs25QQnN8LMgH_4core3fmt5Debug3fmtB9_
FN:108,_RNCNvNtNtNtCsja659UKyDHk_8babushka7parsers9terashima5tests20test_parse_terashima0B9_
FN:83,_RNCINvNtNtCsja659UKyDHk_8babushka7parsers9terashima15parse_terashimaNtNtNtB8_9kernelf647polygon7PolygonNtNtCslHLefFcWfHx_3std2fs4FileEs_0B8_
FN:60,_RNCINvNtNtCsja659UKyDHk_8babushka7parsers9terashima15parse_terashimaNtNtNtB8_9kernelf647polygon7PolygonNtNtCslHLefFcWfHx_3std2fs4FileE0B8_
FN:92,_RNCINvNtNtCsja659UKyDHk_8babushka7parsers9terashima15parse_terashimaNtNtNtB8_9kernelf647polygon7PolygonNtNtCslHLefFcWfHx_3std2fs4FileEs0_0B8_
FN:33,_RINvNtNtCsja659UKyDHk_8babushka7parsers9terashima15parse_terashimaNtNtNtB6_9kernelf647polygon7PolygonNtNtCslHLefFcWfHx_3std2fs4FileEB6_
FN:109,_RNvNtNtNtCsja659UKyDHk_8babushka7parsers9terashima5testss_20test_parse_terashima
FNDA:0,_RNvXININtNtCsja659UKyDHk_8babushka7parsers9terashima0pEINtB5_17TerashimaInstancepENtNtCs25QQnN8LMgH_4core3fmt5Debug3fmtB9_
FNDA:1,_RNCNvNtNtNtCsja659UKyDHk_8babushka7parsers9terashima5tests20test_parse_terashima0B9_
FNDA:140,_RNCINvNtNtCsja659UKyDHk_8babushka7parsers9terashima15parse_terashimaNtNtNtB8_9kernelf647polygon7PolygonNtNtCslHLefFcWfHx_3std2fs4FileEs_0B8_
FNDA:2,_RNCINvNtNtCsja659UKyDHk_8babushka7parsers9terashima15parse_terashimaNtNtNtB8_9kernelf647polygon7PolygonNtNtCslHLefFcWfHx_3std2fs4FileE0B8_
FNDA:70,_RNCINvNtNtCsja659UKyDHk_8babushka7parsers9terashima15parse_terashimaNtNtNtB8_9kernelf647polygon7PolygonNtNtCslHLefFcWfHx_3std2fs4FileEs0_0B8_
FNDA:1,_RINvNtNtCsja659UKyDHk_8babushka7parsers9terashima15parse_terashimaNtNtNtB6_9kernelf647polygon7PolygonNtNtCslHLefFcWfHx_3std2fs4FileEB6_
FNDA:1,_RNvNtNtNtCsja659UKyDHk_8babushka7parsers9terashima5testss_20test_parse_terashima
FNF:7
FNH:6
DA:27,0
DA:33,1
DA:34,1
DA:35,1
DA:36,1
DA:37,1
DA:38,1
DA:39,1
DA:40,1
DA:41,1
DA:42,1
DA:43,1
DA:44,1
DA:45,1
DA:48,1
DA:49,1
DA:50,1
DA:51,1
DA:52,1
DA:55,1
DA:56,1
DA:57,1
DA:58,1
DA:59,1
DA:60,2
DA:61,1
DA:63,1
DA:64,0
DA:65,1
DA:66,1
DA:67,1
DA:68,1
DA:69,1
DA:70,1
DA:71,1
DA:72,1
DA:73,1
DA:74,1
DA:75,1
DA:76,1
DA:77,1
DA:78,15
DA:79,15
DA:80,15
DA:81,15
DA:82,15
DA:83,140
DA:84,15
DA:86,15
DA:87,0
DA:88,15
DA:89,15
DA:90,15
DA:91,15
DA:92,70
DA:93,15
DA:94,15
DA:95,15
DA:98,1
DA:99,1
DA:108,1
DA:109,1
DA:110,1
DA:111,1
DA:112,1
DA:113,1
DA:114,1
DA:115,1
DA:116,1
BRF:0
BRH:0
LF:72
LH:69
end_of_record
SF:/Users/davefol/src/babushka/src/piece.rs
FN:111,_RNCNvNtNtCsja659UKyDHk_8babushka5piece5tests35test_rectangle_with_triangular_hole0B7_
FN:70,_RNvMNtCsja659UKyDHk_8babushka5pieceINtB2_5PiecepE10node_countB4_
FN:19,_RINvMNtCsja659UKyDHk_8babushka5pieceINtB3_5PiecepE16for_each_polygonpEB5_
FN:37,_RNCINvMNtCsja659UKyDHk_8babushka5pieceINtB5_5PiecepE10from_rootspE0B7_
FN:33,_RINvMNtCsja659UKyDHk_8babushka5pieceINtB3_5PiecepE10from_rootspEB5_
FN:29,_RNvMNtCsja659UKyDHk_8babushka5pieceINtB2_5PiecepE12node_indicesB4_
FN:62,_RNvMNtCsja659UKyDHk_8babushka5pieceINtB2_5PiecepE15get_polygon_mutB4_
FN:42,_RNvMNtCsja659UKyDHk_8babushka5pieceINtB2_5PiecepE8add_rootB4_
FN:48,_RNvMNtCsja659UKyDHk_8babushka5pieceINtB2_5PieceNtNtNtB4_9kernelf647polygon7PolygonE9add_childB4_
FN:58,_RNvMNtCsja659UKyDHk_8babushka5pieceINtB2_5PieceNtNtNtB4_9kernelf647polygon7PolygonE11get_polygonB4_
FN:54,_RNvMNtCsja659UKyDHk_8babushka5pieceINtB2_5PieceNtNtNtB4_9kernelf647polygon7PolygonE9get_rootsB4_
FN:74,_RNvMNtCsja659UKyDHk_8babushka5pieceINtB2_5PieceNtNtNtB4_9kernelf647polygon7PolygonE10node_depthB4_
FN:10,_RNvMNtCsja659UKyDHk_8babushka5pieceINtB2_5PieceNtNtNtB4_9kernelf647polygon7PolygonE3newB4_
FN:66,_RNvMNtCsja659UKyDHk_8babushka5pieceINtB2_5PieceNtNtNtB4_9kernelf647polygon7PolygonE13iter_childrenB4_
FN:112,_RNvNtNtCsja659UKyDHk_8babushka5piece5testss_35test_rectangle_with_triangular_hole
FNDA:1,_RNCNvNtNtCsja659UKyDHk_8babushka5piece5tests35test_rectangle_with_triangular_hole0B7_
FNDA:0,_RNvMNtCsja659UKyDHk_8babushka5pieceINtB2_5PiecepE10node_countB4_
FNDA:0,_RINvMNtCsja659UKyDHk_8babushka5pieceINtB3_5PiecepE16for_each_polygonpEB5_
FNDA:0,_RNCINvMNtCsja659UKyDHk_8babushka5pieceINtB5_5PiecepE10from_rootspE0B7_
FNDA:0,_RINvMNtCsja659UKyDHk_8babushka5pieceINtB3_5PiecepE10from_rootspEB5_
FNDA:0,_RNvMNtCsja659UKyDHk_8babushka5pieceINtB2_5PiecepE12node_indicesB4_
FNDA:0,_RNvMNtCsja659UKyDHk_8babushka5pieceINtB2_5PiecepE15get_polygon_mutB4_
FNDA:0,_RNvMNtCsja659UKyDHk_8babushka5pieceINtB2_5PiecepE8add_rootB4_
FNDA:1,_RNvMNtCsja659UKyDHk_8babushka5pieceINtB2_5PieceNtNtNtB4_9kernelf647polygon7PolygonE9add_childB4_
FNDA:2,_RNvMNtCsja659UKyDHk_8babushka5pieceINtB2_5PieceNtNtNtB4_9kernelf647polygon7PolygonE11get_polygonB4_
FNDA:2,_RNvMNtCsja659UKyDHk_8babushka5pieceINtB2_5PieceNtNtNtB4_9kernelf647polygon7PolygonE9get_rootsB4_
FNDA:2,_RNvMNtCsja659UKyDHk_8babushka5pieceINtB2_5PieceNtNtNtB4_9kernelf647polygon7PolygonE10node_depthB4_
FNDA:1,_RNvMNtCsja659UKyDHk_8babushka5pieceINtB2_5PieceNtNtNtB4_9kernelf647polygon7PolygonE3newB4_
FNDA:1,_RNvMNtCsja659UKyDHk_8babushka5pieceINtB2_5PieceNtNtNtB4_9kernelf647polygon7PolygonE13iter_childrenB4_
FNDA:1,_RNvNtNtCsja659UKyDHk_8babushka5piece5testss_35test_rectangle_with_triangular_hole
FNF:15
FNH:8
DA:10,1
DA:11,1
DA:12,1
DA:13,1
DA:14,1
DA:15,1
DA:16,1
DA:17,1
DA:19,0
DA:20,0
DA:21,0
DA:22,0
DA:23,0
DA:24,0
DA:25,0
DA:26,0
DA:27,0
DA:29,0
DA:30,0
DA:31,0
DA:33,0
DA:34,0
DA:35,0
DA:36,0
DA:37,0
DA:38,0
DA:39,0
DA:40,0
DA:42,0
DA:43,0
DA:44,0
DA:45,0
DA:46,0
DA:48,1
DA:49,1
DA:50,1
DA:51,1
DA:52,1
DA:54,2
DA:55,2
DA:56,2
DA:58,2
DA:59,2
DA:60,2
DA:62,0
DA:63,0
DA:64,0
DA:66,1
DA:67,1
DA:68,1
DA:70,0
DA:71,0
DA:72,0
DA:74,2
DA:75,2
DA:76,2
DA:77,2
DA:78,2
DA:79,2
DA:80,1
DA:81,1
DA:82,1
DA:83,1
DA:84,1
DA:86,0
DA:87,2
DA:88,2
DA:89,2
DA:90,2
DA:92,3
DA:93,3
DA:94,3
DA:95,3
DA:96,1
DA:97,1
DA:98,1
DA:99,1
DA:101,2
DA:102,2
DA:111,1
DA:112,1
DA:113,1
DA:114,1
DA:115,1
DA:116,1
DA:117,1
DA:118,1
DA:119,1
DA:120,1
DA:121,1
DA:122,1
DA:123,1
DA:124,1
DA:125,1
DA:126,1
DA:127,1
DA:128,1
DA:129,1
DA:130,1
DA:131,1
DA:132,1
DA:133,1
DA:134,1
DA:135,1
DA:136,1
DA:137,1
DA:140,1
DA:141,1
DA:143,1
DA:144,1
DA:147,1
DA:150,1
DA:151,1
BRF:0
BRH:0
LF:114
LH:81
end_of_record
SF:/Users/davefol/src/babushka/src/point.rs
FN:37,_RNvYNtNtNtCsja659UKyDHk_8babushka9kernelf647point2d7Point2DNtNtB8_5point7Point2D15within_distanceB8_
FN:134,_RINvYNtNtNtCsja659UKyDHk_8babushka9kernelf647point2d7Point2DNtNtB9_5point7Point2D10in_polygonNtNtB7_7polygon7PolygonEB9_
FN:44,_RNvYNtNtNtCsja659UKyDHk_8babushka9kernelf647point2d7Point2DNtNtB8_5point7Point2D10normalizedB8_
FN:28,_RNvYNtNtNtCsja659UKyDHk_8babushka9kernelf647point2d7Point2DNtNtB8_5point7Point2D7epsilonB8_
FN:32,_RNvYNtNtNtCsja659UKyDHk_8babushka9kernelf647point2d7Point2DNtNtB8_5point7Point2D3dotB8_
FN:173,_RINvYNtNtNtCsja659UKyDHk_8babushka9kernelf647point2d7Point2DNtNtB9_5point7Point2D19distance_to_segmentNtNtB7_7segment7SegmentEB9_
FN:67,_RINvYNtNtNtCsja659UKyDHk_8babushka9kernelf647point2d7Point2DNtNtB9_5point7Point2D10on_segmentNtNtB7_7segment7SegmentEB9_
FN:232,_RNCNvNtNtCsja659UKyDHk_8babushka5point5tests15test_normalized0B7_
FN:254,_RNCNvNtNtCsja659UKyDHk_8babushka5point5tests15test_on_segment0B7_
FN:357,_RNCNvNtNtCsja659UKyDHk_8babushka5point5tests30test_point_distance_to_segment0B7_
FN:294,_RNCNvNtNtCsja659UKyDHk_8babushka5point5tests21test_point_in_polygon0B7_
FN:217,_RNCNvNtNtCsja659UKyDHk_8babushka5point5tests20test_within_distance0B7_
FN:218,_RNvNtNtCsja659UKyDHk_8babushka5point5testss_20test_within_distance
FN:233,_RNvNtNtCsja659UKyDHk_8babushka5point5testss_15test_normalized
FN:255,_RNvNtNtCsja659UKyDHk_8babushka5point5testss_15test_on_segment
FN:295,_RNvNtNtCsja659UKyDHk_8babushka5point5testss_21test_point_in_polygon
FN:358,_RNvNtNtCsja659UKyDHk_8babushka5point5testss_30test_point_distance_to_segment
FNDA:4,_RNvYNtNtNtCsja659UKyDHk_8babushka9kernelf647point2d7Point2DNtNtB8_5point7Point2D15within_distanceB8_
FNDA:14,_RINvYNtNtNtCsja659UKyDHk_8babushka9kernelf647point2d7Point2DNtNtB9_5point7Point2D10in_polygonNtNtB7_7polygon7PolygonEB9_
FNDA:1348,_RNvYNtNtNtCsja659UKyDHk_8babushka9kernelf647point2d7Point2DNtNtB8_5point7Point2D10normalizedB8_
FNDA:93,_RNvYNtNtNtCsja659UKyDHk_8babushka9kernelf647point2d7Point2DNtNtB8_5point7Point2D7epsilonB8_
FNDA:9289,_RNvYNtNtNtCsja659UKyDHk_8babushka9kernelf647point2d7Point2DNtNtB8_5point7Point2D3dotB8_
FNDA:388,_RINvYNtNtNtCsja659UKyDHk_8babushka9kernelf647point2d7Point2DNtNtB9_5point7Point2D19distance_to_segmentNtNtB7_7segment7SegmentEB9_
FNDA:739,_RINvYNtNtNtCsja659UKyDHk_8babushka9kernelf647point2d7Point2DNtNtB9_5point7Point2D10on_segmentNtNtB7_7segment7SegmentEB9_
FNDA:1,_RNCNvNtNtCsja659UKyDHk_8babushka5point5tests15test_normalized0B7_
FNDA:1,_RNCNvNtNtCsja659UKyDHk_8babushka5point5tests15test_on_segment0B7_
FNDA:1,_RNCNvNtNtCsja659UKyDHk_8babushka5point5tests30test_point_distance_to_segment0B7_
FNDA:1,_RNCNvNtNtCsja659UKyDHk_8babushka5point5tests21test_point_in_polygon0B7_
FNDA:1,_RNCNvNtNtCsja659UKyDHk_8babushka5point5tests20test_within_distance0B7_
FNDA:1,_RNvNtNtCsja659UKyDHk_8babushka5point5testss_20test_within_distance
FNDA:1,_RNvNtNtCsja659UKyDHk_8babushka5point5testss_15test_normalized
FNDA:1,_RNvNtNtCsja659UKyDHk_8babushka5point5testss_15test_on_segment
FNDA:1,_RNvNtNtCsja659UKyDHk_8babushka5point5testss_21test_point_in_polygon
FNDA:1,_RNvNtNtCsja659UKyDHk_8babushka5point5testss_30test_point_distance_to_segment
FNF:17
FNH:17
DA:28,93
DA:29,93
DA:30,93
DA:32,9289
DA:33,9289
DA:34,9289
DA:37,4
DA:38,4
DA:39,4
DA:40,4
DA:41,4
DA:44,1348
DA:45,1348
DA:46,1348
DA:47,1348
DA:48,1348
DA:49,1348
DA:50,1348
DA:51,1348
DA:52,1245
DA:53,103
DA:54,103
DA:55,103
DA:56,1
DA:57,102
DA:58,102
DA:59,102
DA:60,102
DA:61,102
DA:62,102
DA:63,1348
DA:67,739
DA:68,739
DA:69,739
DA:70,739
DA:71,739
DA:72,20
DA:73,13
DA:74,13
DA:75,9
DA:77,4
DA:79,16
DA:81,719
DA:82,719
DA:83,719
DA:84,719
DA:85,20
DA:86,16
DA:87,16
DA:88,14
DA:90,5
DA:92,15
DA:94,699
DA:95,699
DA:96,699
DA:97,699
DA:98,410
DA:99,128
DA:100,95
DA:102,662
DA:103,37
DA:104,37
DA:105,37
DA:106,37
DA:107,36
DA:109,10
DA:110,27
DA:111,27
DA:112,27
DA:113,27
DA:114,27
DA:115,21
DA:116,6
DA:117,6
DA:118,6
DA:119,6
DA:120,6
DA:121,0
DA:122,6
DA:123,6
DA:124,6
DA:125,6
DA:126,6
DA:127,0
DA:128,6
DA:129,6
DA:130,6
DA:131,739
DA:134,14
DA:135,14
DA:136,1
DA:137,13
DA:138,13
DA:139,13
DA:140,43
DA:141,43
DA:142,43
DA:143,43
DA:144,43
DA:145,43
DA:146,43
DA:147,43
DA:148,2
DA:149,41
DA:150,41
DA:151,41
DA:152,4
DA:153,37
DA:154,37
DA:155,37
DA:156,0
DA:157,37
DA:159,37
DA:160,14
DA:161,37
DA:162,7
DA:163,30
DA:166,7
DA:167,14
DA:173,388
DA:174,388
DA:175,388
DA:176,388
DA:177,388
DA:178,388
DA:179,388
DA:180,388
DA:181,388
DA:182,388
DA:183,388
DA:184,388
DA:185,388
DA:186,388
DA:187,388
DA:188,388
DA:189,388
DA:190,388
DA:191,388
DA:192,364
DA:193,164
DA:194,354
DA:195,202
DA:197,27
DA:198,337
DA:199,337
DA:200,0
DA:202,0
DA:203,337
DA:204,337
DA:205,0
DA:207,0
DA:208,337
DA:209,24
DA:211,361
DA:212,388
DA:217,1
DA:218,1
DA:219,1
DA:220,1
DA:221,1
DA:222,1
DA:223,1
DA:224,1
DA:225,1
DA:227,1
DA:228,1
DA:229,1
DA:230,1
DA:232,1
DA:233,1
DA:234,1
DA:235,1
DA:236,1
DA:237,1
DA:238,1
DA:239,1
DA:240,1
DA:241,1
DA:243,1
DA:244,1
DA:245,1
DA:246,1
DA:247,1
DA:249,1
DA:250,1
DA:251,1
DA:252,1
DA:254,1
DA:255,1
DA:256,1
DA:257,1
DA:258,1
DA:259,1
DA:260,1
DA:261,1
DA:262,1
DA:263,1
DA:264,1
DA:265,1
DA:268,1
DA:269,1
DA:272,1
DA:273,1
DA:276,1
DA:277,1
DA:278,1
DA:279,1
DA:280,1
DA:283,1
DA:284,1
DA:285,1
DA:286,1
DA:287,1
DA:290,1
DA:291,1
DA:292,1
DA:294,1
DA:295,1
DA:296,1
DA:297,1
DA:298,1
DA:299,1
DA:300,1
DA:301,1
DA:302,1
DA:303,1
DA:304,1
DA:305,1
DA:306,1
DA:307,1
DA:308,1
DA:309,1
DA:310,1
DA:311,1
DA:312,1
DA:315,1
DA:316,1
DA:319,1
DA:320,1
DA:323,1
DA:324,1
DA:327,1
DA:328,1
DA:329,1
DA:330,1
DA:331,1
DA:332,1
DA:333,1
DA:334,1
DA:335,1
DA:336,1
DA:337,1
DA:338,1
DA:341,1
DA:342,1
DA:345,1
DA:346,1
DA:349,1
DA:350,1
DA:351,1
DA:352,1
DA:353,1
DA:354,1
DA:355,1
DA:357,1
DA:358,1
DA:359,1
DA:360,1
DA:361,1
DA:362,1
DA:363,1
DA:364,1
DA:365,1
DA:366,1
DA:367,1
DA:368,1
DA:369,1
DA:370,1
DA:371,1
DA:372,1
DA:373,1
DA:374,1
DA:377,1
DA:378,1
DA:379,1
DA:382,1
DA:383,1
DA:384,1
DA:385,1
DA:386,0
DA:387,0
DA:388,0
DA:392,1
DA:393,1
DA:394,1
DA:395,1
DA:396,1
DA:397,1
DA:398,1
DA:399,1
DA:402,1
DA:403,1
DA:404,1
DA:407,1
DA:408,1
DA:409,1
DA:412,1
DA:413,1
DA:414,1
DA:415,1
DA:416,1
DA:417,1
DA:418,1
DA:419,1
DA:420,1
DA:421,1
DA:422,1
DA:423,0
DA:424,0
DA:425,0
DA:429,1
DA:430,1
DA:431,1
DA:432,1
DA:433,1
DA:434,1
DA:435,1
DA:436,1
DA:437,1
DA:438,1
DA:439,1
BRF:0
BRH:0
LF:331
LH:318
end_of_record
SF:/Users/davefol/src/babushka/src/polygon.rs
FN:487,_RNCNvNtNtCsja659UKyDHk_8babushka7polygon5tests40test_polygon_project_distance_on_polygon0B7_
FN:388,_RNCNvNtNtCsja659UKyDHk_8babushka7polygon5tests31test_polygon_intersects_polygon0B7_
FN:335,_RNCNvNtNtCsja659UKyDHk_8babushka7polygon5tests25test_iter_poly_segments_30B7_
FN:252,_RNCNvNtNtCsja659UKyDHk_8babushka7polygon5tests17test_bounding_box0B7_
FN:288,_RNCNvNtNtCsja659UKyDHk_8babushka7polygon5tests9test_area0B7_
FN:444,_RNCNvNtNtCsja659UKyDHk_8babushka7polygon5tests38test_polygon_slide_distance_on_polygon0B7_
FN:289,_RNvNtNtCsja659UKyDHk_8babushka7polygon5testss_9test_area
FN:488,_RNvNtNtCsja659UKyDHk_8babushka7polygon5testss_40test_polygon_project_distance_on_polygon
FN:389,_RNvNtNtCsja659UKyDHk_8babushka7polygon5testss_31test_polygon_intersects_polygon
FN:336,_RNvNtNtCsja659UKyDHk_8babushka7polygon5testss_25test_iter_poly_segments_3
FN:253,_RNvNtNtCsja659UKyDHk_8babushka7polygon5testss_17test_bounding_box
FN:445,_RNvNtNtCsja659UKyDHk_8babushka7polygon5testss_38test_polygon_slide_distance_on_polygon
FN:51,_RNCNvYNtNtNtCsja659UKyDHk_8babushka9kernelf647polygon7PolygonNtNtBa_7polygon7Polygon20iter_poly_segments_30Ba_
FN:108,_RNCNvYNtNtNtCsja659UKyDHk_8babushka9kernelf647polygon7PolygonNtNtBa_7polygon7Polygon4area0Ba_
FN:33,_RNCNvYNtNtNtCsja659UKyDHk_8babushka9kernelf647polygon7PolygonNtNtBa_7polygon7Polygon13iter_vertices0Ba_
FN:40,_RNCNvYNtNtNtCsja659UKyDHk_8babushka9kernelf647polygon7PolygonNtNtBa_7polygon7Polygon13iter_segments0Ba_
FN:104,_RNvYNtNtNtCsja659UKyDHk_8babushka9kernelf647polygon7PolygonNtNtB8_7polygon7Polygon4areaB8_
FN:31,_RNvYNtNtNtCsja659UKyDHk_8babushka9kernelf647polygon7PolygonNtNtB8_7polygon7Polygon13iter_verticesB8_
FN:55,_RNvYNtNtNtCsja659UKyDHk_8babushka9kernelf647polygon7PolygonNtNtB8_7polygon7Polygon18bounding_box_localB8_
FN:182,_RNvYNtNtNtCsja659UKyDHk_8babushka9kernelf647polygon7PolygonNtNtB8_7polygon7Polygon25slide_distance_on_polygonB8_
FN:91,_RNvYNtNtNtCsja659UKyDHk_8babushka9kernelf647polygon7PolygonNtNtB8_7polygon7Polygon9translateB8_
FN:38,_RNvYNtNtNtCsja659UKyDHk_8babushka9kernelf647polygon7PolygonNtNtB8_7polygon7Polygon13iter_segmentsB8_
FN:43,_RNvYNtNtNtCsja659UKyDHk_8babushka9kernelf647polygon7PolygonNtNtB8_7polygon7Polygon20iter_poly_segments_3B8_
FN:117,_RNvYNtNtNtCsja659UKyDHk_8babushka9kernelf647polygon7PolygonNtNtB8_7polygon7Polygon18intersects_polygonB8_
FN:76,_RNvYNtNtNtCsja659UKyDHk_8babushka9kernelf647polygon7PolygonNtNtB8_7polygon7Polygon12bounding_boxB8_
FN:216,_RNvYNtNtNtCsja659UKyDHk_8babushka9kernelf647polygon7PolygonNtNtB8_7polygon7Polygon27project_distance_on_polygonB8_
FNDA:1,_RNCNvNtNtCsja659UKyDHk_8babushka7polygon5tests40test_polygon_project_distance_on_polygon0B7_
FNDA:1,_RNCNvNtNtCsja659UKyDHk_8babushka7polygon5tests31test_polygon_intersects_polygon0B7_
FNDA:1,_RNCNvNtNtCsja659UKyDHk_8babushka7polygon5tests25test_iter_poly_segments_30B7_
FNDA:1,_RNCNvNtNtCsja659UKyDHk_8babushka7polygon5tests17test_bounding_box0B7_
FNDA:1,_RNCNvNtNtCsja659UKyDHk_8babushka7polygon5tests9test_area0B7_
FNDA:1,_RNCNvNtNtCsja659UKyDHk_8babushka7polygon5tests38test_polygon_slide_distance_on_polygon0B7_
FNDA:1,_RNvNtNtCsja659UKyDHk_8babushka7polygon5testss_9test_area
FNDA:1,_RNvNtNtCsja659UKyDHk_8babushka7polygon5testss_40test_polygon_project_distance_on_polygon
FNDA:1,_RNvNtNtCsja659UKyDHk_8babushka7polygon5testss_31test_polygon_intersects_polygon
FNDA:1,_RNvNtNtCsja659UKyDHk_8babushka7polygon5testss_25test_iter_poly_segments_3
FNDA:1,_RNvNtNtCsja659UKyDHk_8babushka7polygon5testss_17test_bounding_box
FNDA:1,_RNvNtNtCsja659UKyDHk_8babushka7polygon5testss_38test_polygon_slide_distance_on_polygon
FNDA:100,_RNCNvYNtNtNtCsja659UKyDHk_8babushka9kernelf647polygon7PolygonNtNtBa_7polygon7Polygon20iter_poly_segments_30Ba_
FNDA:11,_RNCNvYNtNtNtCsja659UKyDHk_8babushka9kernelf647polygon7PolygonNtNtBa_7polygon7Polygon4area0Ba_
FNDA:39,_RNCNvYNtNtNtCsja659UKyDHk_8babushka9kernelf647polygon7PolygonNtNtBa_7polygon7Polygon13iter_vertices0Ba_
FNDA:2025,_RNCNvYNtNtNtCsja659UKyDHk_8babushka9kernelf647polygon7PolygonNtNtBa_7polygon7Polygon13iter_segments0Ba_
FNDA:3,_RNvYNtNtNtCsja659UKyDHk_8babushka9kernelf647polygon7PolygonNtNtB8_7polygon7Polygon4areaB8_
FNDA:9,_RNvYNtNtNtCsja659UKyDHk_8babushka9kernelf647polygon7PolygonNtNtB8_7polygon7Polygon13iter_verticesB8_
FNDA:2,_RNvYNtNtNtCsja659UKyDHk_8babushka9kernelf647polygon7PolygonNtNtB8_7polygon7Polygon18bounding_box_localB8_
FNDA:48,_RNvYNtNtNtCsja659UKyDHk_8babushka9kernelf647polygon7PolygonNtNtB8_7polygon7Polygon25slide_distance_on_polygonB8_
FNDA:6,_RNvYNtNtNtCsja659UKyDHk_8babushka9kernelf647polygon7PolygonNtNtB8_7polygon7Polygon9translateB8_
FNDA:200,_RNvYNtNtNtCsja659UKyDHk_8babushka9kernelf647polygon7PolygonNtNtB8_7polygon7Polygon13iter_segmentsB8_
FNDA:13,_RNvYNtNtNtCsja659UKyDHk_8babushka9kernelf647polygon7PolygonNtNtB8_7polygon7Polygon20iter_poly_segments_3B8_
FNDA:6,_RNvYNtNtNtCsja659UKyDHk_8babushka9kernelf647polygon7PolygonNtNtB8_7polygon7Polygon18intersects_polygonB8_
FNDA:2,_RNvYNtNtNtCsja659UKyDHk_8babushka9kernelf647polygon7PolygonNtNtB8_7polygon7Polygon12bounding_boxB8_
FNDA:6,_RNvYNtNtNtCsja659UKyDHk_8babushka9kernelf647polygon7PolygonNtNtB8_7polygon7Polygon27project_distance_on_polygonB8_
FNF:26
FNH:26
DA:31,9
DA:32,9
DA:33,39
DA:34,9
DA:38,200
DA:39,200
DA:40,2025
DA:41,200
DA:43,13
DA:44,13
DA:45,13
DA:46,13
DA:47,13
DA:48,13
DA:49,13
DA:50,13
DA:51,100
DA:52,13
DA:55,2
DA:56,2
DA:57,2
DA:58,2
DA:59,2
DA:60,5
DA:61,5
DA:62,5
DA:63,5
DA:64,5
DA:65,5
DA:66,2
DA:67,2
DA:68,2
DA:69,2
DA:70,2
DA:71,2
DA:72,2
DA:76,2
DA:77,2
DA:78,2
DA:79,2
DA:80,2
DA:81,2
DA:82,2
DA:83,2
DA:84,2
DA:85,2
DA:86,2
DA:87,2
DA:88,2
DA:91,6
DA:92,6
DA:93,6
DA:94,6
DA:95,6
DA:96,6
DA:97,6
DA:98,6
DA:99,6
DA:100,6
DA:104,3
DA:105,3
DA:106,3
DA:107,3
DA:108,11
DA:109,11
DA:110,11
DA:111,11
DA:112,11
DA:113,3
DA:114,3
DA:115,3
DA:117,6
DA:118,6
DA:119,6
DA:120,6
DA:121,72
DA:122,6
DA:123,6
DA:125,72
DA:126,72
DA:127,72
DA:128,72
DA:129,72
DA:130,72
DA:131,72
DA:132,72
DA:133,72
DA:134,72
DA:135,72
DA:136,0
DA:137,0
DA:138,0
DA:139,0
DA:141,0
DA:143,72
DA:144,72
DA:145,72
DA:146,1
DA:147,1
DA:148,1
DA:149,1
DA:151,0
DA:153,71
DA:154,71
DA:155,71
DA:156,0
DA:157,0
DA:158,0
DA:159,0
DA:161,0
DA:163,71
DA:164,71
DA:165,71
DA:166,0
DA:167,0
DA:168,0
DA:169,0
DA:171,0
DA:173,71
DA:174,71
DA:175,71
DA:176,3
DA:177,68
DA:179,2
DA:180,6
DA:182,48
DA:183,48
DA:184,48
DA:185,48
DA:186,48
DA:187,48
DA:188,48
DA:189,0
DA:191,48
DA:192,854
DA:193,48
DA:194,48
DA:197,854
DA:198,0
DA:199,854
DA:200,854
DA:201,854
DA:203,854
DA:205,248
DA:206,138
DA:207,65
DA:208,73
DA:209,110
DA:210,606
DA:212,48
DA:213,48
DA:216,6
DA:217,6
DA:218,6
DA:219,6
DA:220,6
DA:221,6
DA:222,25
DA:223,25
DA:224,100
DA:225,100
DA:226,100
DA:227,100
DA:229,69
DA:230,31
DA:231,31
DA:232,31
DA:233,31
DA:234,31
DA:235,31
DA:236,7
DA:237,7
DA:238,24
DA:240,25
DA:241,7
DA:243,6
DA:244,19
DA:247,6
DA:248,6
DA:252,1
DA:253,1
DA:254,1
DA:255,1
DA:256,1
DA:257,1
DA:258,1
DA:259,1
DA:260,1
DA:261,1
DA:262,1
DA:263,1
DA:264,1
DA:265,1
DA:266,1
DA:267,1
DA:268,1
DA:269,1
DA:270,1
DA:271,1
DA:273,1
DA:274,1
DA:275,1
DA:276,1
DA:277,1
DA:278,1
DA:279,1
DA:280,1
DA:281,1
DA:282,1
DA:283,1
DA:284,1
DA:285,1
DA:286,1
DA:287,1
DA:288,1
DA:289,1
DA:290,1
DA:291,1
DA:292,1
DA:293,1
DA:294,1
DA:295,1
DA:296,1
DA:297,1
DA:298,1
DA:299,1
DA:300,1
DA:301,1
DA:302,1
DA:303,1
DA:304,1
DA:305,1
DA:308,1
DA:309,1
DA:310,1
DA:311,1
DA:312,1
DA:313,1
DA:314,1
DA:315,1
DA:316,1
DA:317,1
DA:318,1
DA:321,1
DA:322,1
DA:323,1
DA:324,1
DA:325,1
DA:326,1
DA:327,1
DA:328,1
DA:329,1
DA:330,1
DA:331,1
DA:332,1
DA:333,1
DA:335,1
DA:336,1
DA:337,1
DA:338,1
DA:339,1
DA:340,1
DA:341,1
DA:342,1
DA:343,1
DA:344,1
DA:345,1
DA:346,1
DA:347,1
DA:348,1
DA:349,1
DA:350,1
DA:351,1
DA:352,1
DA:353,1
DA:356,1
DA:357,1
DA:358,1
DA:359,1
DA:360,1
DA:361,1
DA:364,1
DA:365,1
DA:366,1
DA:367,1
DA:368,1
DA:369,1
DA:372,1
DA:373,1
DA:374,1
DA:375,1
DA:376,1
DA:377,1
DA:380,1
DA:381,1
DA:382,1
DA:383,1
DA:384,1
DA:385,1
DA:386,1
DA:388,1
DA:389,1
DA:390,1
DA:391,1
DA:392,1
DA:393,1
DA:394,1
DA:395,1
DA:396,1
DA:397,1
DA:398,1
DA:399,1
DA:400,1
DA:401,1
DA:402,1
DA:403,1
DA:404,1
DA:405,1
DA:406,1
DA:407,1
DA:408,1
DA:409,1
DA:410,1
DA:411,1
DA:412,1
DA:413,1
DA:414,1
DA:415,1
DA:416,1
DA:419,1
DA:420,1
DA:421,1
DA:422,1
DA:423,1
DA:424,1
DA:425,1
DA:426,1
DA:427,1
DA:428,1
DA:429,1
DA:430,1
DA:431,1
DA:432,1
DA:433,1
DA:434,1
DA:435,1
DA:436,1
DA:437,1
DA:438,1
DA:439,1
DA:440,1
DA:441,1
DA:442,1
DA:444,1
DA:445,1
DA:446,1
DA:447,1
DA:448,1
DA:449,1
DA:450,1
DA:451,1
DA:452,1
DA:453,1
DA:454,1
DA:455,1
DA:456,1
DA:457,1
DA:458,1
DA:459,1
DA:460,1
DA:461,1
DA:462,1
DA:463,1
DA:464,1
DA:465,1
DA:466,1
DA:468,1
DA:469,1
DA:470,1
DA:471,1
DA:473,1
DA:474,1
DA:475,1
DA:477,1
DA:478,1
DA:479,1
DA:481,1
DA:482,1
DA:483,1
DA:484,1
DA:485,1
DA:487,1
DA:488,1
DA:489,1
DA:490,1
DA:491,1
DA:492,1
DA:493,1
DA:494,1
DA:495,1
DA:496,1
DA:497,1
DA:498,1
DA:499,1
DA:500,1
DA:501,1
DA:502,1
DA:503,1
DA:504,1
DA:505,1
DA:506,1
DA:507,1
DA:508,1
DA:510,1
DA:511,1
DA:512,1
DA:514,1
DA:515,1
DA:516,1
DA:518,1
DA:519,1
DA:520,1
DA:521,1
BRF:0
BRH:0
LF:428
LH:410
end_of_record
SF:/Users/davefol/src/babushka/src/raster.rs
FN:186,_RINvNtCsja659UKyDHk_8babushka6raster10draw_piecepEB4_
FN:202,_RINvNtCsja659UKyDHk_8babushka6raster15draw_piece_nodepEB4_
FN:145,_RNvNtCsja659UKyDHk_8babushka6raster9draw_char
FN:9,_RNvNtCsja659UKyDHk_8babushka6raster15world_to_screen
FN:105,_RINvNtCsja659UKyDHk_8babushka6raster14draw_directionpEB4_
FN:239,_RNCINvNtCsja659UKyDHk_8babushka6raster15draw_piece_nodepEs_0B6_
FN:82,_RINvNtCsja659UKyDHk_8babushka6raster12draw_segmentpEB4_
FN:238,_RNCINvNtCsja659UKyDHk_8babushka6raster15draw_piece_nodepE0B6_
FN:42,_RNvNtCsja659UKyDHk_8babushka6raster9draw_line
FN:168,_RNvNtCsja659UKyDHk_8babushka6raster9best_grid
FN:13,_RNvNtCsja659UKyDHk_8babushka6raster15screen_to_world
FN:17,_RINvNtCsja659UKyDHk_8babushka6raster12draw_polygonpEB4_
FN:129,_RNvNtCsja659UKyDHk_8babushka6raster9draw_text
FNDA:0,_RINvNtCsja659UKyDHk_8babushka6raster10draw_piecepEB4_
FNDA:0,_RINvNtCsja659UKyDHk_8babushka6raster15draw_piece_nodepEB4_
FNDA:0,_RNvNtCsja659UKyDHk_8babushka6raster9draw_char
FNDA:0,_RNvNtCsja659UKyDHk_8babushka6raster15world_to_screen
FNDA:0,_RINvNtCsja659UKyDHk_8babushka6raster14draw_directionpEB4_
FNDA:0,_RNCINvNtCsja659UKyDHk_8babushka6raster15draw_piece_nodepEs_0B6_
FNDA:0,_RINvNtCsja659UKyDHk_8babushka6raster12draw_segmentpEB4_
FNDA:0,_RNCINvNtCsja659UKyDHk_8babushka6raster15draw_piece_nodepE0B6_
FNDA:0,_RNvNtCsja659UKyDHk_8babushka6raster9draw_line
FNDA:0,_RNvNtCsja659UKyDHk_8babushka6raster9best_grid
FNDA:0,_RNvNtCsja659UKyDHk_8babushka6raster15screen_to_world
FNDA:0,_RINvNtCsja659UKyDHk_8babushka6raster12draw_polygonpEB4_
FNDA:0,_RNvNtCsja659UKyDHk_8babushka6raster9draw_text
FNF:13
FNH:0
DA:9,0
DA:10,0
DA:11,0
DA:13,0
DA:14,0
DA:15,0
DA:17,0
DA:18,0
DA:19,0
DA:20,0
DA:21,0
DA:22,0
DA:23,0
DA:24,0
DA:25,0
DA:26,0
DA:27,0
DA:28,0
DA:29,0
DA:30,0
DA:31,0
DA:32,0
DA:33,0
DA:34,0
DA:35,0
DA:36,0
DA:37,0
DA:38,0
DA:39,0
DA:40,0
DA:42,0
DA:43,0
DA:44,0
DA:45,0
DA:46,0
DA:47,0
DA:48,0
DA:49,0
DA:50,0
DA:51,0
DA:52,0
DA:53,0
DA:54,0
DA:55,0
DA:56,0
DA:57,0
DA:58,0
DA:59,0
DA:61,0
DA:62,0
DA:63,0
DA:64,0
DA:66,0
DA:67,0
DA:68,0
DA:69,0
DA:70,0
DA:71,0
DA:72,0
DA:73,0
DA:74,0
DA:75,0
DA:76,0
DA:77,0
DA:78,0
DA:80,0
DA:82,0
DA:83,0
DA:84,0
DA:85,0
DA:86,0
DA:87,0
DA:88,0
DA:89,0
DA:90,0
DA:91,0
DA:92,0
DA:93,0
DA:94,0
DA:95,0
DA:96,0
DA:97,0
DA:98,0
DA:99,0
DA:100,0
DA:101,0
DA:102,0
DA:103,0
DA:105,0
DA:106,0
DA:107,0
DA:108,0
DA:109,0
DA:110,0
DA:111,0
DA:112,0
DA:113,0
DA:114,0
DA:115,0
DA:116,0
DA:117,0
DA:118,0
DA:119,0
DA:120,0
DA:121,0
DA:122,0
DA:123,0
DA:124,0
DA:125,0
DA:126,0
DA:127,0
DA:129,0
DA:130,0
DA:131,0
DA:132,0
DA:133,0
DA:134,0
DA:135,0
DA:136,0
DA:137,0
DA:138,0
DA:139,0
DA:140,0
DA:141,0
DA:142,0
DA:143,0
DA:145,0
DA:146,0
DA:147,0
DA:148,0
DA:149,0
DA:150,0
DA:151,0
DA:152,0
DA:153,0
DA:154,0
DA:155,0
DA:156,0
DA:157,0
DA:158,0
DA:159,0
DA:160,0
DA:161,0
DA:162,0
DA:163,0
DA:166,0
DA:168,0
DA:169,0
DA:170,0
DA:171,0
DA:172,0
DA:173,0
DA:174,0
DA:175,0
DA:176,0
DA:177,0
DA:178,0
DA:179,0
DA:180,0
DA:182,0
DA:183,0
DA:186,0
DA:187,0
DA:188,0
DA:189,0
DA:190,0
DA:191,0
DA:192,0
DA:193,0
DA:194,0
DA:195,0
DA:196,0
DA:197,0
DA:198,0
DA:199,0
DA:200,0
DA:202,0
DA:203,0
DA:204,0
DA:205,0
DA:206,0
DA:207,0
DA:208,0
DA:209,0
DA:210,0
DA:211,0
DA:212,0
DA:213,0
DA:214,0
DA:215,0
DA:216,0
DA:217,0
DA:218,0
DA:219,0
DA:220,0
DA:221,0
DA:222,0
DA:223,0
DA:224,0
DA:225,0
DA:226,0
DA:227,0
DA:228,0
DA:229,0
DA:230,0
DA:231,0
DA:232,0
DA:233,0
DA:234,0
DA:235,0
DA:236,0
DA:237,0
DA:238,0
DA:239,0
DA:240,0
DA:241,0
DA:243,0
DA:244,0
DA:245,0
DA:246,0
DA:247,0
DA:248,0
DA:249,0
DA:250,0
DA:253,0
DA:255,0
DA:256,0
DA:257,0
DA:258,0
BRF:0
BRH:0
LF:232
LH:0
end_of_record
SF:/Users/davefol/src/babushka/src/segment.rs
FN:393,_RNCNvNtNtCsja659UKyDHk_8babushka7segment5tests31test_segment_intersects_polygon0B7_
FN:285,_RNCNvNtNtCsja659UKyDHk_8babushka7segment5tests31test_segment_intersects_segment0B7_
FN:336,_RNCNvNtNtCsja659UKyDHk_8babushka7segment5tests43test_segment_distance_to_coincident_segment0B7_
FN:280,_RNCNvYNtNtNtCsja659UKyDHk_8babushka9kernelf647segment7SegmentNtNtBa_7segment7Segment35distance_to_segment_along_direction0Ba_
FN:27,_RNCINvYNtNtNtCsja659UKyDHk_8babushka9kernelf647segment7SegmentNtNtBb_7segment7Segment18intersects_polygonNtNtB9_7polygon7PolygonE0Bb_
FN:37,_RNvYNtNtNtCsja659UKyDHk_8babushka9kernelf647segment7SegmentNtNtB8_7segment7Segment18intersects_segmentB8_
FN:15,_RINvYNtNtNtCsja659UKyDHk_8babushka9kernelf647segment7SegmentNtNtB9_7segment7Segment18intersects_polygonNtNtB7_7polygon7PolygonEB9_
FN:107,_RNvYNtNtNtCsja659UKyDHk_8babushka9kernelf647segment7SegmentNtNtB8_7segment7Segment35distance_to_segment_along_directionB8_
FN:286,_RNvNtNtCsja659UKyDHk_8babushka7segment5testss_31test_segment_intersects_segment
FN:394,_RNvNtNtCsja659UKyDHk_8babushka7segment5testss_31test_segment_intersects_polygon
FN:337,_RNvNtNtCsja659UKyDHk_8babushka7segment5testss_43test_segment_distance_to_coincident_segment
FNDA:1,_RNCNvNtNtCsja659UKyDHk_8babushka7segment5tests31test_segment_intersects_polygon0B7_
FNDA:1,_RNCNvNtNtCsja659UKyDHk_8babushka7segment5tests31test_segment_intersects_segment0B7_
FNDA:1,_RNCNvNtNtCsja659UKyDHk_8babushka7segment5tests43test_segment_distance_to_coincident_segment0B7_
FNDA:239,_RNCNvYNtNtNtCsja659UKyDHk_8babushka9kernelf647segment7SegmentNtNtBa_7segment7Segment35distance_to_segment_along_direction0Ba_
FNDA:1,_RNCINvYNtNtNtCsja659UKyDHk_8babushka9kernelf647segment7SegmentNtNtBb_7segment7Segment18intersects_polygonNtNtB9_7polygon7PolygonE0Bb_
FNDA:83,_RNvYNtNtNtCsja659UKyDHk_8babushka9kernelf647segment7SegmentNtNtB8_7segment7Segment18intersects_segmentB8_
FNDA:2,_RINvYNtNtNtCsja659UKyDHk_8babushka9kernelf647segment7SegmentNtNtB9_7segment7Segment18intersects_polygonNtNtB7_7polygon7PolygonEB9_
FNDA:857,_RNvYNtNtNtCsja659UKyDHk_8babushka9kernelf647segment7SegmentNtNtB8_7segment7Segment35distance_to_segment_along_directionB8_
FNDA:1,_RNvNtNtCsja659UKyDHk_8babushka7segment5testss_31test_segment_intersects_segment
FNDA:1,_RNvNtNtCsja659UKyDHk_8babushka7segment5testss_31test_segment_intersects_polygon
FNDA:1,_RNvNtNtCsja659UKyDHk_8babushka7segment5testss_43test_segment_distance_to_coincident_segment
FNF:11
FNH:11
DA:15,2
DA:16,2
DA:17,2
DA:18,2
DA:19,2
DA:20,8
DA:21,8
DA:22,8
DA:23,2
DA:24,6
DA:27,2
DA:28,1
DA:29,1
DA:30,1
DA:31,2
DA:32,2
DA:33,2
DA:37,83
DA:38,83
DA:39,83
DA:40,83
DA:41,83
DA:42,83
DA:43,83
DA:44,83
DA:45,83
DA:46,83
DA:47,83
DA:48,83
DA:49,83
DA:50,83
DA:51,83
DA:52,83
DA:53,83
DA:54,83
DA:55,83
DA:56,33
DA:57,50
DA:58,50
DA:59,50
DA:60,49
DA:61,28
DA:62,21
DA:64,7
DA:67,22
DA:68,27
DA:69,27
DA:70,27
DA:71,23
DA:72,9
DA:74,14
DA:77,17
DA:78,10
DA:79,10
DA:80,10
DA:81,6
DA:82,4
DA:84,2
DA:87,3
DA:88,7
DA:89,7
DA:90,7
DA:91,5
DA:92,2
DA:94,3
DA:97,1
DA:98,6
DA:99,1
DA:101,7
DA:102,7
DA:103,83
DA:107,857
DA:108,857
DA:109,857
DA:110,857
DA:111,857
DA:112,857
DA:113,0
DA:116,857
DA:117,857
DA:118,857
DA:119,857
DA:120,857
DA:121,857
DA:122,857
DA:123,857
DA:124,857
DA:125,857
DA:126,857
DA:127,857
DA:128,857
DA:129,857
DA:130,857
DA:131,857
DA:132,857
DA:133,857
DA:134,857
DA:135,857
DA:136,857
DA:137,857
DA:138,857
DA:139,857
DA:140,857
DA:141,285
DA:142,572
DA:143,572
DA:144,572
DA:145,572
DA:146,322
DA:147,250
DA:149,250
DA:150,250
DA:151,65
DA:153,185
DA:154,185
DA:155,185
DA:156,185
DA:157,185
DA:158,185
DA:161,250
DA:162,250
DA:163,250
DA:164,250
DA:165,250
DA:166,1
DA:167,1
DA:168,1
DA:169,1
DA:171,1
DA:172,0
DA:175,1
DA:176,0
DA:180,1
DA:181,1
DA:184,0
DA:185,0
DA:186,0
DA:187,0
DA:188,0
DA:189,0
DA:190,0
DA:191,1
DA:192,1
DA:193,249
DA:194,249
DA:195,249
DA:196,249
DA:197,249
DA:198,249
DA:199,39
DA:200,210
DA:201,45
DA:202,165
DA:203,50
DA:204,50
DA:205,50
DA:206,0
DA:207,0
DA:208,0
DA:209,0
DA:210,0
DA:211,0
DA:212,50
DA:213,0
DA:214,50
DA:215,50
DA:216,50
DA:217,115
DA:219,249
DA:220,49
DA:221,200
DA:222,39
DA:223,161
DA:224,50
DA:225,50
DA:226,50
DA:227,0
DA:228,0
DA:229,0
DA:230,0
DA:231,0
DA:232,0
DA:233,50
DA:234,0
DA:235,50
DA:236,50
DA:237,50
DA:238,111
DA:240,249
DA:241,113
DA:242,113
DA:243,113
DA:244,11
DA:245,11
DA:246,11
DA:247,5
DA:248,6
DA:249,0
DA:250,102
DA:251,0
DA:252,113
DA:253,108
DA:254,108
DA:255,136
DA:257,249
DA:258,113
DA:259,113
DA:260,113
DA:261,12
DA:262,12
DA:263,12
DA:264,5
DA:265,7
DA:266,0
DA:267,101
DA:268,0
DA:269,113
DA:270,108
DA:271,108
DA:272,136
DA:274,249
DA:275,0
DA:276,249
DA:277,249
DA:278,249
DA:279,249
DA:280,249
DA:281,857
DA:285,1
DA:286,1
DA:287,1
DA:288,1
DA:289,1
DA:290,1
DA:291,1
DA:292,1
DA:293,1
DA:294,1
DA:295,1
DA:296,1
DA:297,1
DA:298,1
DA:299,1
DA:300,1
DA:301,1
DA:302,1
DA:303,1
DA:304,1
DA:305,1
DA:306,1
DA:307,1
DA:308,1
DA:309,1
DA:310,1
DA:313,1
DA:314,1
DA:317,1
DA:318,1
DA:319,1
DA:320,1
DA:321,1
DA:322,1
DA:325,1
DA:326,1
DA:327,1
DA:328,1
DA:329,1
DA:330,1
DA:331,1
DA:332,1
DA:333,1
DA:334,1
DA:336,1
DA:337,1
DA:338,1
DA:339,1
DA:340,1
DA:341,1
DA:342,1
DA:343,1
DA:344,1
DA:345,1
DA:346,1
DA:347,1
DA:348,1
DA:349,1
DA:350,1
DA:351,1
DA:352,1
DA:353,1
DA:354,1
DA:355,1
DA:356,1
DA:357,1
DA:365,1
DA:366,1
DA:367,1
DA:368,1
DA:369,1
DA:370,1
DA:371,1
DA:372,1
DA:373,1
DA:374,1
DA:381,1
DA:382,1
DA:383,1
DA:384,1
DA:385,1
DA:386,1
DA:387,1
DA:388,1
DA:389,1
DA:390,1
DA:391,1
DA:393,1
DA:394,1
DA:395,1
DA:396,1
DA:397,1
DA:398,1
DA:399,1
DA:400,1
DA:401,1
DA:402,1
DA:403,1
DA:404,1
DA:405,1
DA:406,1
DA:407,1
DA:408,1
DA:409,1
DA:410,1
DA:411,1
DA:412,1
DA:413,1
DA:414,1
DA:415,1
DA:416,1
DA:419,1
DA:420,1
DA:423,1
DA:424,1
DA:425,1
DA:426,1
DA:427,1
DA:428,1
DA:429,1
DA:430,1
DA:431,1
DA:432,1
DA:433,1
BRF:0
BRH:0
LF:355
LH:326
end_of_record